; Function Attrs: mustprogress nounwind uwtable
define void @_ZN8proxygen21RequestHandlerAdaptor14refreshTimeoutEv(ptr nocapture noundef nonnull readonly align 8 dereferenceable(36) %this) unnamed_addr #4 align 2 personality ptr @__gxx_personality_v0 {
entry:
  %txn_ = getelementptr inbounds i8, ptr %this, i64 24
  %0 = load ptr, ptr %txn_, align 8
  %timer_.i = getelementptr inbounds i8, ptr %0, i64 776
  %1 = load ptr, ptr %timer_.i, align 8
  %tobool.not.i = icmp eq ptr %1, null
  br i1 %tobool.not.i, label %invoke.cont, label %land.lhs.true.i

land.lhs.true.i:                                  ; preds = %entry
  %hasValue.i.i.i = getelementptr inbounds i8, ptr %0, i64 768
  %2 = load i8, ptr %hasValue.i.i.i, align 8
  %3 = and i8 %2, 1
  %tobool.i.i.not.i = icmp eq i8 %3, 0
  br i1 %tobool.i.i.not.i, label %invoke.cont, label %_ZNR5folly8OptionalINSt6chrono8durationIlSt5ratioILl1ELl1000EEEEE5valueEv.exit.i

_ZNR5folly8OptionalINSt6chrono8durationIlSt5ratioILl1ELl1000EEEEE5valueEv.exit.i: ; preds = %land.lhs.true.i
  %idleTimeout_.i = getelementptr inbounds i8, ptr %0, i64 760
  %4 = load i64, ptr %idleTimeout_.i, align 8
  %cmp.i.i.not.i = icmp eq i64 %4, 0
  br i1 %cmp.i.i.not.i, label %invoke.cont, label %_ZNR5folly8OptionalINSt6chrono8durationIlSt5ratioILl1ELl1000EEEEE5valueEv.exit5.i

_ZNR5folly8OptionalINSt6chrono8durationIlSt5ratioILl1ELl1000EEEEE5valueEv.exit5.i: ; preds = %_ZNR5folly8OptionalINSt6chrono8durationIlSt5ratioILl1ELl1000EEEEE5valueEv.exit.i
  invoke void @_ZN5folly16HHWheelTimerBaseINSt6chrono8durationIlSt5ratioILl1ELl1000EEEEE15scheduleTimeoutEPNS6_8CallbackES5_(ptr noundef nonnull align 8 dereferenceable(16704) %1, ptr noundef nonnull %0, i64 %4)
          to label %invoke.cont unwind label %terminate.lpad

invoke.cont:                                      ; preds = %_ZNR5folly8OptionalINSt6chrono8durationIlSt5ratioILl1ELl1000EEEEE5valueEv.exit.i, %land.lhs.true.i, %entry, %_ZNR5folly8OptionalINSt6chrono8durationIlSt5ratioILl1ELl1000EEEEE5valueEv.exit5.i
  ret void

terminate.lpad:                                   ; preds = %_ZNR5folly8OptionalINSt6chrono8durationIlSt5ratioILl1ELl1000EEEEE5valueEv.exit5.i
  %5 = landingpad { ptr, i32 }
          catch ptr null
  %6 = extractvalue { ptr, i32 } %5, 0
  tail call void @__clang_call_terminate(ptr %6) #22
  unreachable
}